target datalayout = "e-m:e-p270:32:32-p271:32:32-p272:64:64-i64:64-i128:128-f80:128-n8:16:32:64-S128"
target triple = "x86_64-pc-linux-gnu"

%struct.Abc_Ntk_t_ = type { i32, i32, ptr, ptr, ptr, ptr, ptr, ptr, ptr, ptr, ptr, ptr, ptr, [11 x i32], i32, i32, i32, i32, ptr, i32, ptr, ptr, i32, i32, i32, double, i32, %struct.Vec_Int_t_, ptr, ptr, ptr, ptr, ptr, float, i32, ptr, ptr, ptr, ptr, ptr, ptr, ptr, ptr, ptr, ptr, ptr, ptr, ptr, ptr, ptr, ptr, ptr, ptr, ptr, ptr, ptr, ptr }
%struct.Vec_Int_t_ = type { i32, i32, ptr }
%struct.Abc_Obj_t_ = type { ptr, ptr, i32, i32, %struct.Vec_Int_t_, %struct.Vec_Int_t_, %union.anon, %union.anon.0 }
%union.anon = type { ptr }
%union.anon.0 = type { ptr }
%struct.Vec_Ptr_t_ = type { i32, i32, ptr }

@.str.24 = private unnamed_addr constant [47 x i8] c"Abc_NtkCleanup: The network check has failed.\0A\00", align 1

; Function Attrs: inlinehint nounwind uwtable
define internal i32 @Abc_ObjIsNode(ptr noundef %0) #2 {
  %2 = alloca ptr, align 8
  store ptr %0, ptr %2, align 8, !tbaa !26
  %3 = load ptr, ptr %2, align 8, !tbaa !26
  %4 = getelementptr inbounds nuw %struct.Abc_Obj_t_, ptr %3, i32 0, i32 3
  %5 = load i32, ptr %4, align 4
  %6 = and i32 %5, 15
  %7 = icmp eq i32 %6, 7
  %8 = zext i1 %7 to i32
  ret i32 %8
}

; Function Attrs: inlinehint nounwind uwtable
define internal ptr @Abc_NtkObj(ptr noundef %0, i32 noundef %1) #2 {
  %3 = alloca ptr, align 8
  %4 = alloca i32, align 4
  store ptr %0, ptr %3, align 8, !tbaa !3
  store i32 %1, ptr %4, align 4, !tbaa !8
  %5 = load ptr, ptr %3, align 8, !tbaa !3
  %6 = getelementptr inbounds nuw %struct.Abc_Ntk_t_, ptr %5, i32 0, i32 5
  %7 = load ptr, ptr %6, align 8, !tbaa !10
  %8 = load i32, ptr %4, align 4, !tbaa !8
  %9 = call ptr @Vec_PtrEntry(ptr noundef %7, i32 noundef %8)
  ret ptr %9
}

; Function Attrs: inlinehint nounwind uwtable
define internal ptr @Vec_PtrEntry(ptr noundef %0, i32 noundef %1) #2 {
  %3 = alloca ptr, align 8
  %4 = alloca i32, align 4
  store ptr %0, ptr %3, align 8, !tbaa !45
  store i32 %1, ptr %4, align 4, !tbaa !8
  %5 = load ptr, ptr %3, align 8, !tbaa !45
  %6 = getelementptr inbounds nuw %struct.Vec_Ptr_t_, ptr %5, i32 0, i32 2
  %7 = load ptr, ptr %6, align 8, !tbaa !73
  %8 = load i32, ptr %4, align 4, !tbaa !8
  %9 = sext i32 %8 to i64
  %10 = getelementptr inbounds ptr, ptr %7, i64 %9
  %11 = load ptr, ptr %10, align 8, !tbaa !78
  ret ptr %11
}

; Function Attrs: inlinehint nounwind uwtable
define internal i32 @Vec_PtrSize(ptr noundef %0) #2 {
  %2 = alloca ptr, align 8
  store ptr %0, ptr %2, align 8, !tbaa !45
  %3 = load ptr, ptr %2, align 8, !tbaa !45
  %4 = getelementptr inbounds nuw %struct.Vec_Ptr_t_, ptr %3, i32 0, i32 1
  %5 = load i32, ptr %4, align 4, !tbaa !46
  ret i32 %5
}

; Function Attrs: nounwind uwtable
define internal i32 @Abc_NtkReduceNodes(ptr noundef %0, ptr noundef %1) #0 {
  %3 = alloca ptr, align 8
  %4 = alloca ptr, align 8
  %5 = alloca ptr, align 8
  %6 = alloca i32, align 4
  %7 = alloca i32, align 4
  store ptr %0, ptr %3, align 8, !tbaa !3
  store ptr %1, ptr %4, align 8, !tbaa !45
  call void @llvm.lifetime.start.p0(i64 8, ptr %5) #7
  call void @llvm.lifetime.start.p0(i64 4, ptr %6) #7
  call void @llvm.lifetime.start.p0(i64 4, ptr %7) #7
  store i32 0, ptr %6, align 4, !tbaa !8
  br label %8

8:                                                ; preds = %25, %2
  %9 = load i32, ptr %6, align 4, !tbaa !8
  %10 = load ptr, ptr %4, align 8, !tbaa !45
  %11 = call i32 @Vec_PtrSize(ptr noundef %10)
  %12 = icmp slt i32 %9, %11
  br i1 %12, label %13, label %17

13:                                               ; preds = %8
  %14 = load ptr, ptr %4, align 8, !tbaa !45
  %15 = load i32, ptr %6, align 4, !tbaa !8
  %16 = call ptr @Vec_PtrEntry(ptr noundef %14, i32 noundef %15)
  store ptr %16, ptr %5, align 8, !tbaa !26
  br label %17

17:                                               ; preds = %13, %8
  %18 = phi i1 [ false, %8 ], [ true, %13 ]
  br i1 %18, label %19, label %28

19:                                               ; preds = %17
  %20 = load ptr, ptr %5, align 8, !tbaa !26
  %21 = getelementptr inbounds nuw %struct.Abc_Obj_t_, ptr %20, i32 0, i32 3
  %22 = load i32, ptr %21, align 4
  %23 = and i32 %22, -17
  %24 = or i32 %23, 16
  store i32 %24, ptr %21, align 4
  br label %25

25:                                               ; preds = %19
  %26 = load i32, ptr %6, align 4, !tbaa !8
  %27 = add nsw i32 %26, 1
  store i32 %27, ptr %6, align 4, !tbaa !8
  br label %8, !llvm.loop !70

28:                                               ; preds = %17
  store i32 0, ptr %7, align 4, !tbaa !8
  store i32 0, ptr %6, align 4, !tbaa !8
  br label %29

29:                                               ; preds = %63, %28
  %30 = load i32, ptr %6, align 4, !tbaa !8
  %31 = load ptr, ptr %3, align 8, !tbaa !3
  %32 = getelementptr inbounds nuw %struct.Abc_Ntk_t_, ptr %31, i32 0, i32 5
  %33 = load ptr, ptr %32, align 8, !tbaa !10
  %34 = call i32 @Vec_PtrSize(ptr noundef %33)
  %35 = icmp slt i32 %30, %34
  br i1 %35, label %36, label %40

36:                                               ; preds = %29
  %37 = load ptr, ptr %3, align 8, !tbaa !3
  %38 = load i32, ptr %6, align 4, !tbaa !8
  %39 = call ptr @Abc_NtkObj(ptr noundef %37, i32 noundef %38)
  store ptr %39, ptr %5, align 8, !tbaa !26
  br label %40

40:                                               ; preds = %36, %29
  %41 = phi i1 [ false, %29 ], [ true, %36 ]
  br i1 %41, label %42, label %66

42:                                               ; preds = %40
  %43 = load ptr, ptr %5, align 8, !tbaa !26
  %44 = icmp eq ptr %43, null
  br i1 %44, label %49, label %45

45:                                               ; preds = %42
  %46 = load ptr, ptr %5, align 8, !tbaa !26
  %47 = call i32 @Abc_ObjIsNode(ptr noundef %46)
  %48 = icmp ne i32 %47, 0
  br i1 %48, label %50, label %49

49:                                               ; preds = %45, %42
  br label %62

50:                                               ; preds = %45
  %51 = load ptr, ptr %5, align 8, !tbaa !26
  %52 = getelementptr inbounds nuw %struct.Abc_Obj_t_, ptr %51, i32 0, i32 3
  %53 = load i32, ptr %52, align 4
  %54 = lshr i32 %53, 4
  %55 = and i32 %54, 1
  %56 = icmp eq i32 %55, 0
  br i1 %56, label %57, label %61

57:                                               ; preds = %50
  %58 = load ptr, ptr %5, align 8, !tbaa !26
  call void @Abc_NtkDeleteObj(ptr noundef %58)
  %59 = load i32, ptr %7, align 4, !tbaa !8
  %60 = add nsw i32 %59, 1
  store i32 %60, ptr %7, align 4, !tbaa !8
  br label %61

61:                                               ; preds = %57, %50
  br label %62

62:                                               ; preds = %61, %49
  br label %63

63:                                               ; preds = %62
  %64 = load i32, ptr %6, align 4, !tbaa !8
  %65 = add nsw i32 %64, 1
  store i32 %65, ptr %6, align 4, !tbaa !8
  br label %29, !llvm.loop !71

66:                                               ; preds = %40
  store i32 0, ptr %6, align 4, !tbaa !8
  br label %67

67:                                               ; preds = %84, %66
  %68 = load i32, ptr %6, align 4, !tbaa !8
  %69 = load ptr, ptr %4, align 8, !tbaa !45
  %70 = call i32 @Vec_PtrSize(ptr noundef %69)
  %71 = icmp slt i32 %68, %70
  br i1 %71, label %72, label %76

72:                                               ; preds = %67
  %73 = load ptr, ptr %4, align 8, !tbaa !45
  %74 = load i32, ptr %6, align 4, !tbaa !8
  %75 = call ptr @Vec_PtrEntry(ptr noundef %73, i32 noundef %74)
  store ptr %75, ptr %5, align 8, !tbaa !26
  br label %76

76:                                               ; preds = %72, %67
  %77 = phi i1 [ false, %67 ], [ true, %72 ]
  br i1 %77, label %78, label %87

78:                                               ; preds = %76
  %79 = load ptr, ptr %5, align 8, !tbaa !26
  %80 = getelementptr inbounds nuw %struct.Abc_Obj_t_, ptr %79, i32 0, i32 3
  %81 = load i32, ptr %80, align 4
  %82 = and i32 %81, -17
  %83 = or i32 %82, 0
  store i32 %83, ptr %80, align 4
  br label %84

84:                                               ; preds = %78
  %85 = load i32, ptr %6, align 4, !tbaa !8
  %86 = add nsw i32 %85, 1
  store i32 %86, ptr %6, align 4, !tbaa !8
  br label %67, !llvm.loop !72

87:                                               ; preds = %76
  %88 = load ptr, ptr %3, align 8, !tbaa !3
  %89 = call i32 @Abc_NtkCheck(ptr noundef %88)
  %90 = icmp ne i32 %89, 0
  br i1 %90, label %93, label %91

91:                                               ; preds = %87
  %92 = call i32 (ptr, ...) @printf(ptr noundef @.str.24)
  br label %93

93:                                               ; preds = %91, %87
  %94 = load i32, ptr %7, align 4, !tbaa !8
  call void @llvm.lifetime.end.p0(i64 4, ptr %7) #7
  call void @llvm.lifetime.end.p0(i64 4, ptr %6) #7
  call void @llvm.lifetime.end.p0(i64 8, ptr %5) #7
  ret i32 %94
}