; Function Attrs: nounwind uwtable
define internal fastcc i32 @Abc_NtkReduceNodes(ptr noundef %0, ptr noundef readonly captures(none) %1) unnamed_addr #0 {
  %3 = getelementptr i8, ptr %1, i64 4
  %.val3238 = load i32, ptr %3, align 4, !tbaa !26
  %4 = icmp sgt i32 %.val3238, 0
  br i1 %4, label %.lr.ph, label %.critedge.preheader

.lr.ph:                                           ; preds = %2
  %5 = getelementptr i8, ptr %1, i64 8
  br label %10

.critedge.preheader:                              ; preds = %10, %2
  %.val4455 = phi i32 [ %.val3238, %2 ], [ %.val32, %10 ]
  %6 = getelementptr inbounds nuw i8, ptr %0, i64 32
  %7 = load ptr, ptr %6, align 8, !tbaa !25
  %8 = getelementptr i8, ptr %7, i64 4
  %.val3140 = load i32, ptr %8, align 4, !tbaa !26
  %9 = icmp sgt i32 %.val3140, 0
  br i1 %9, label %.lr.ph43, label %.critedge2.preheader

10:                                               ; preds = %.lr.ph, %10
  %indvars.iv = phi i64 [ 0, %.lr.ph ], [ %indvars.iv.next, %10 ]
  %.val33 = load ptr, ptr %5, align 8, !tbaa !28
  %11 = getelementptr inbounds nuw ptr, ptr %.val33, i64 %indvars.iv
  %12 = load ptr, ptr %11, align 8, !tbaa !29
  %13 = getelementptr inbounds nuw i8, ptr %12, i64 20
  %14 = load i32, ptr %13, align 4
  %15 = or i32 %14, 16
  store i32 %15, ptr %13, align 4
  %indvars.iv.next = add nuw nsw i64 %indvars.iv, 1
  %.val32 = load i32, ptr %3, align 4, !tbaa !26
  %16 = sext i32 %.val32 to i64
  %17 = icmp slt i64 %indvars.iv.next, %16
  br i1 %17, label %10, label %.critedge.preheader, !llvm.loop !79

.critedge2.preheader.loopexit:                    ; preds = %.critedge
  %.val44.pre = load i32, ptr %3, align 4, !tbaa !26
  br label %.critedge2.preheader

.critedge2.preheader:                             ; preds = %.critedge2.preheader.loopexit, %.critedge.preheader
  %.val44 = phi i32 [ %.val4455, %.critedge.preheader ], [ %.val44.pre, %.critedge2.preheader.loopexit ]
  %.0.lcssa = phi i32 [ 0, %.critedge.preheader ], [ %.1, %.critedge2.preheader.loopexit ]
  %18 = icmp sgt i32 %.val44, 0
  br i1 %18, label %.lr.ph46, label %.critedge4

.lr.ph46:                                         ; preds = %.critedge2.preheader
  %19 = getelementptr i8, ptr %1, i64 8
  br label %.critedge2

.lr.ph43:                                         ; preds = %.critedge.preheader, %.critedge
  %20 = phi ptr [ %30, %.critedge ], [ %7, %.critedge.preheader ]
  %indvars.iv48 = phi i64 [ %indvars.iv.next49, %.critedge ], [ 0, %.critedge.preheader ]
  %.042 = phi i32 [ %.1, %.critedge ], [ 0, %.critedge.preheader ]
  %21 = getelementptr i8, ptr %20, i64 8
  %.val35.val = load ptr, ptr %21, align 8, !tbaa !28
  %22 = getelementptr inbounds nuw ptr, ptr %.val35.val, i64 %indvars.iv48
  %23 = load ptr, ptr %22, align 8, !tbaa !29
  %24 = icmp eq ptr %23, null
  br i1 %24, label %.critedge, label %25

25:                                               ; preds = %.lr.ph43
  %26 = getelementptr i8, ptr %23, i64 20
  %.val36 = load i32, ptr %26, align 4
  %27 = and i32 %.val36, 31
  %or.cond = icmp eq i32 %27, 7
  br i1 %or.cond, label %28, label %.critedge

28:                                               ; preds = %25
  tail call void @Abc_NtkDeleteObj(ptr noundef nonnull %23) #11
  %29 = add nsw i32 %.042, 1
  %.pre = load ptr, ptr %6, align 8, !tbaa !25
  br label %.critedge

.critedge:                                        ; preds = %25, %.lr.ph43, %28
  %30 = phi ptr [ %20, %.lr.ph43 ], [ %.pre, %28 ], [ %20, %25 ]
  %.1 = phi i32 [ %.042, %.lr.ph43 ], [ %29, %28 ], [ %.042, %25 ]
  %indvars.iv.next49 = add nuw nsw i64 %indvars.iv48, 1
  %31 = getelementptr i8, ptr %30, i64 4
  %.val31 = load i32, ptr %31, align 4, !tbaa !26
  %32 = sext i32 %.val31 to i64
  %33 = icmp slt i64 %indvars.iv.next49, %32
  br i1 %33, label %.lr.ph43, label %.critedge2.preheader.loopexit, !llvm.loop !80

.critedge2:                                       ; preds = %.lr.ph46, %.critedge2
  %indvars.iv51 = phi i64 [ 0, %.lr.ph46 ], [ %indvars.iv.next52, %.critedge2 ]
  %.val34 = load ptr, ptr %19, align 8, !tbaa !28
  %34 = getelementptr inbounds nuw ptr, ptr %.val34, i64 %indvars.iv51
  %35 = load ptr, ptr %34, align 8, !tbaa !29
  %36 = getelementptr inbounds nuw i8, ptr %35, i64 20
  %37 = load i32, ptr %36, align 4
  %38 = and i32 %37, -17
  store i32 %38, ptr %36, align 4
  %indvars.iv.next52 = add nuw nsw i64 %indvars.iv51, 1
  %.val = load i32, ptr %3, align 4, !tbaa !26
  %39 = sext i32 %.val to i64
  %40 = icmp slt i64 %indvars.iv.next52, %39
  br i1 %40, label %.critedge2, label %.critedge4, !llvm.loop !81

.critedge4:                                       ; preds = %.critedge2, %.critedge2.preheader
  %41 = tail call i32 @Abc_NtkCheck(ptr noundef %0) #11
  %.not = icmp eq i32 %41, 0
  br i1 %.not, label %42, label %43

42:                                               ; preds = %.critedge4
  %puts = tail call i32 @puts(ptr nonnull dereferenceable(1) @str.3)
  br label %43

43:                                               ; preds = %42, %.critedge4
  ret i32 %.0.lcssa
}